; Function Attrs: nounwind uwtable
define hidden i32 @mbedtls_pk_verify(ptr noundef %0, i32 noundef %1, ptr noundef %2, i64 noundef %3, ptr noundef %4, i64 noundef %5) local_unnamed_addr #1 {
  %7 = icmp ne i32 %1, 0
  %8 = icmp ne i64 %3, 0
  %or.cond.i = or i1 %7, %8
  %9 = icmp eq ptr %2, null
  %or.cond3.i = and i1 %9, %or.cond.i
  br i1 %or.cond3.i, label %mbedtls_pk_verify_restartable.exit, label %10

10:                                               ; preds = %6
  %11 = load ptr, ptr %0, align 8, !tbaa !3
  %12 = icmp eq ptr %11, null
  br i1 %12, label %mbedtls_pk_verify_restartable.exit, label %13

13:                                               ; preds = %10
  %.not.i.i = icmp eq i64 %3, 0
  br i1 %.not.i.i, label %pk_hashlen_helper.exit.i, label %pk_hashlen_helper.exit.thread.i

pk_hashlen_helper.exit.i:                         ; preds = %13
  %14 = tail call ptr @mbedtls_md_info_from_type(i32 noundef %1) #7
  %15 = tail call zeroext i8 @mbedtls_md_get_size(ptr noundef %14) #7
  %.not.i = icmp eq i8 %15, 0
  br i1 %.not.i, label %mbedtls_pk_verify_restartable.exit, label %pk_hashlen_helper.exit.pk_hashlen_helper.exit.thread_crit_edge.i

pk_hashlen_helper.exit.pk_hashlen_helper.exit.thread_crit_edge.i: ; preds = %pk_hashlen_helper.exit.i
  %16 = zext i8 %15 to i64
  %.pre.i = load ptr, ptr %0, align 8, !tbaa !3
  br label %pk_hashlen_helper.exit.thread.i

pk_hashlen_helper.exit.thread.i:                  ; preds = %pk_hashlen_helper.exit.pk_hashlen_helper.exit.thread_crit_edge.i, %13
  %17 = phi ptr [ %.pre.i, %pk_hashlen_helper.exit.pk_hashlen_helper.exit.thread_crit_edge.i ], [ %11, %13 ]
  %.01620.i = phi i64 [ %16, %pk_hashlen_helper.exit.pk_hashlen_helper.exit.thread_crit_edge.i ], [ %3, %13 ]
  %18 = getelementptr inbounds nuw i8, ptr %17, i64 32
  %19 = load ptr, ptr %18, align 8, !tbaa !43
  %20 = icmp eq ptr %19, null
  br i1 %20, label %mbedtls_pk_verify_restartable.exit, label %21

21:                                               ; preds = %pk_hashlen_helper.exit.thread.i
  %22 = tail call i32 %19(ptr noundef nonnull %0, i32 noundef %1, ptr noundef %2, i64 noundef %.01620.i, ptr noundef %4, i64 noundef %5) #7
  br label %mbedtls_pk_verify_restartable.exit

mbedtls_pk_verify_restartable.exit:               ; preds = %6, %10, %pk_hashlen_helper.exit.i, %pk_hashlen_helper.exit.thread.i, %21
  %.0.i = phi i32 [ %22, %21 ], [ -16000, %6 ], [ -16000, %pk_hashlen_helper.exit.i ], [ -16000, %10 ], [ -16128, %pk_hashlen_helper.exit.thread.i ]
  ret i32 %.0.i
}